target datalayout = "e-m:e-p270:32:32-p271:32:32-p272:64:64-i64:64-i128:128-f80:128-n8:16:32:64-S128"
target triple = "x86_64-pc-linux-gnu"

%"class.gmx::EnergyGroupsPerCluster" = type { i32, %"class.std::vector", i32, i32 }
%"class.std::vector" = type { %"struct.std::_Vector_base" }
%"struct.std::_Vector_base" = type { %"struct.std::_Vector_base<int, gmx::Allocator<int, gmx::AlignedAllocationPolicy>>::_Vector_impl" }
%"struct.std::_Vector_base<int, gmx::Allocator<int, gmx::AlignedAllocationPolicy>>::_Vector_impl" = type { %"struct.std::_Vector_base<int, gmx::Allocator<int, gmx::AlignedAllocationPolicy>>::_Vector_impl_data" }
%"struct.std::_Vector_base<int, gmx::Allocator<int, gmx::AlignedAllocationPolicy>>::_Vector_impl_data" = type { ptr, ptr, ptr }

; Function Attrs: mustprogress nounwind uwtable
define linkonce_odr void @_ZNSt12_Vector_baseIiN3gmx9AllocatorIiNS0_23AlignedAllocationPolicyEEEE17_Vector_impl_dataC2Ev(ptr noundef nonnull align 8 dereferenceable(24) %0) unnamed_addr #1 comdat align 2 {
  %2 = alloca ptr, align 8
  store ptr %0, ptr %2, align 8, !tbaa !28
  %3 = load ptr, ptr %2, align 8
  %4 = getelementptr inbounds nuw %"struct.std::_Vector_base<int, gmx::Allocator<int, gmx::AlignedAllocationPolicy>>::_Vector_impl_data", ptr %3, i32 0, i32 0
  store ptr null, ptr %4, align 8, !tbaa !30
  %5 = getelementptr inbounds nuw %"struct.std::_Vector_base<int, gmx::Allocator<int, gmx::AlignedAllocationPolicy>>::_Vector_impl_data", ptr %3, i32 0, i32 1
  store ptr null, ptr %5, align 8, !tbaa !31
  %6 = getelementptr inbounds nuw %"struct.std::_Vector_base<int, gmx::Allocator<int, gmx::AlignedAllocationPolicy>>::_Vector_impl_data", ptr %3, i32 0, i32 2
  store ptr null, ptr %6, align 8, !tbaa !32
  ret void
}

; Function Attrs: mustprogress nounwind uwtable
define linkonce_odr void @_ZNSt12_Vector_baseIiN3gmx9AllocatorIiNS0_23AlignedAllocationPolicyEEEE12_Vector_implC2Ev(ptr noundef nonnull align 8 dereferenceable(24) %0) unnamed_addr #1 comdat align 2 {
  %2 = alloca ptr, align 8
  store ptr %0, ptr %2, align 8, !tbaa !26
  %3 = load ptr, ptr %2, align 8
  call void @_ZNSt12_Vector_baseIiN3gmx9AllocatorIiNS0_23AlignedAllocationPolicyEEEE17_Vector_impl_dataC2Ev(ptr noundef nonnull align 8 dereferenceable(24) %3) #13
  ret void
}

; Function Attrs: mustprogress nounwind uwtable
define linkonce_odr void @_ZNSt12_Vector_baseIiN3gmx9AllocatorIiNS0_23AlignedAllocationPolicyEEEEC2Ev(ptr noundef nonnull align 8 dereferenceable(24) %0) unnamed_addr #1 comdat align 2 {
  %2 = alloca ptr, align 8
  store ptr %0, ptr %2, align 8, !tbaa !24
  %3 = load ptr, ptr %2, align 8
  %4 = getelementptr inbounds nuw %"struct.std::_Vector_base", ptr %3, i32 0, i32 0
  call void @_ZNSt12_Vector_baseIiN3gmx9AllocatorIiNS0_23AlignedAllocationPolicyEEEE12_Vector_implC2Ev(ptr noundef nonnull align 8 dereferenceable(24) %4) #13
  ret void
}

; Function Attrs: mustprogress nounwind uwtable
define linkonce_odr void @_ZNSt6vectorIiN3gmx9AllocatorIiNS0_23AlignedAllocationPolicyEEEEC2Ev(ptr noundef nonnull align 8 dereferenceable(24) %0) unnamed_addr #1 comdat align 2 {
  %2 = alloca ptr, align 8
  store ptr %0, ptr %2, align 8, !tbaa !22
  %3 = load ptr, ptr %2, align 8
  call void @_ZNSt12_Vector_baseIiN3gmx9AllocatorIiNS0_23AlignedAllocationPolicyEEEEC2Ev(ptr noundef nonnull align 8 dereferenceable(24) %3) #13
  ret void
}

; Function Attrs: mustprogress nounwind uwtable
define internal noundef i32 @_ZN3gmx12_GLOBAL__N_112log2LargerEqEi(i32 noundef %0) #1 {
  %2 = alloca i32, align 4
  %3 = alloca i32, align 4
  store i32 %0, ptr %2, align 4, !tbaa !9
  call void @llvm.lifetime.start.p0(i64 4, ptr %3) #13
  store i32 0, ptr %3, align 4, !tbaa !9
  br label %4

4:                                                ; preds = %9, %1
  %5 = load i32, ptr %2, align 4, !tbaa !9
  %6 = load i32, ptr %3, align 4, !tbaa !9
  %7 = shl i32 1, %6
  %8 = icmp sgt i32 %5, %7
  br i1 %8, label %9, label %12

9:                                                ; preds = %4
  %10 = load i32, ptr %3, align 4, !tbaa !9
  %11 = add nsw i32 %10, 1
  store i32 %11, ptr %3, align 4, !tbaa !9
  br label %4, !llvm.loop !20

12:                                               ; preds = %4
  %13 = load i32, ptr %3, align 4, !tbaa !9
  call void @llvm.lifetime.end.p0(i64 4, ptr %3) #13
  ret i32 %13
}

; Function Attrs: mustprogress uwtable
define void @_ZN3gmx22EnergyGroupsPerClusterC2Eii(ptr noundef nonnull align 8 dereferenceable(40) %0, i32 noundef %1, i32 noundef %2) unnamed_addr #0 align 2 {
  %4 = alloca ptr, align 8
  %5 = alloca i32, align 4
  %6 = alloca i32, align 4
  store ptr %0, ptr %4, align 8, !tbaa !4
  store i32 %1, ptr %5, align 4, !tbaa !9
  store i32 %2, ptr %6, align 4, !tbaa !9
  %7 = load ptr, ptr %4, align 8
  %8 = getelementptr inbounds nuw %"class.gmx::EnergyGroupsPerCluster", ptr %7, i32 0, i32 0
  %9 = load i32, ptr %5, align 4, !tbaa !9
  %10 = call noundef i32 @_ZN3gmx12_GLOBAL__N_112log2LargerEqEi(i32 noundef %9)
  store i32 %10, ptr %8, align 8, !tbaa !11
  %11 = getelementptr inbounds nuw %"class.gmx::EnergyGroupsPerCluster", ptr %7, i32 0, i32 1
  call void @_ZNSt6vectorIiN3gmx9AllocatorIiNS0_23AlignedAllocationPolicyEEEEC2Ev(ptr noundef nonnull align 8 dereferenceable(24) %11) #13
  %12 = getelementptr inbounds nuw %"class.gmx::EnergyGroupsPerCluster", ptr %7, i32 0, i32 2
  %13 = getelementptr inbounds nuw %"class.gmx::EnergyGroupsPerCluster", ptr %7, i32 0, i32 0
  %14 = load i32, ptr %13, align 8, !tbaa !11
  %15 = shl i32 1, %14
  %16 = sub nsw i32 %15, 1
  store i32 %16, ptr %12, align 8, !tbaa !18
  %17 = getelementptr inbounds nuw %"class.gmx::EnergyGroupsPerCluster", ptr %7, i32 0, i32 3
  %18 = load i32, ptr %6, align 4, !tbaa !9
  store i32 %18, ptr %17, align 4, !tbaa !19
  ret void
}