; Function Attrs: mustprogress nofree norecurse nosync nounwind memory(argmem: write) uwtable
define void @_ZN3gmx22EnergyGroupsPerClusterC2Eii(ptr noundef nonnull writeonly align 8 captures(none) dereferenceable(40) %0, i32 noundef %1, i32 noundef %2) unnamed_addr #0 align 2 {
  br label %4

4:                                                ; preds = %4, %3
  %.0.i = phi i32 [ 0, %3 ], [ %7, %4 ]
  %5 = shl nuw i32 1, %.0.i
  %6 = icmp sgt i32 %1, %5
  %7 = add nuw nsw i32 %.0.i, 1
  br i1 %6, label %4, label %_ZN3gmx12_GLOBAL__N_112log2LargerEqEi.exit, !llvm.loop !4

_ZN3gmx12_GLOBAL__N_112log2LargerEqEi.exit:       ; preds = %4
  store i32 %.0.i, ptr %0, align 8, !tbaa !6
  %8 = getelementptr inbounds nuw i8, ptr %0, i64 8
  tail call void @llvm.memset.p0.i64(ptr noundef nonnull align 8 dereferenceable(24) %8, i8 0, i64 24, i1 false)
  %9 = getelementptr inbounds nuw i8, ptr %0, i64 32
  %notmask = shl nsw i32 -1, %.0.i
  %10 = xor i32 %notmask, -1
  store i32 %10, ptr %9, align 8, !tbaa !17
  %11 = getelementptr inbounds nuw i8, ptr %0, i64 36
  store i32 %2, ptr %11, align 4, !tbaa !18
  ret void
}